target datalayout = "e-m:e-p270:32:32-p271:32:32-p272:64:64-i64:64-i128:128-f80:128-n8:16:32:64-S128"
target triple = "x86_64-pc-linux-gnu"

%struct.FT_StreamRec_ = type { ptr, i64, i64, %union.FT_StreamDesc_, %union.FT_StreamDesc_, ptr, ptr, ptr, ptr, ptr }
%union.FT_StreamDesc_ = type { i64 }
%struct.FT_LZWFileRec_ = type { ptr, ptr, ptr, %struct.FT_LzwStateRec_, [4096 x i8], i64, ptr, ptr }
%struct.FT_LzwStateRec_ = type { i32, i32, [16 x i8], i32, i32, i8, i64, i32, i32, i32, i32, i32, i32, i32, i32, i32, ptr, ptr, i32, ptr, i32, i64, [64 x i8], ptr, ptr }

; Function Attrs: nounwind uwtable
define hidden void @ft_lzwstate_reset(ptr noundef %0) #0 {
  %2 = alloca ptr, align 8
  store ptr %0, ptr %2, align 8, !tbaa !24
  %3 = load ptr, ptr %2, align 8, !tbaa !24
  %4 = getelementptr inbounds nuw %struct.FT_LzwStateRec_, ptr %3, i32 0, i32 1
  store i32 0, ptr %4, align 4, !tbaa !37
  %5 = load ptr, ptr %2, align 8, !tbaa !24
  %6 = getelementptr inbounds nuw %struct.FT_LzwStateRec_, ptr %5, i32 0, i32 3
  store i32 0, ptr %6, align 8, !tbaa !38
  %7 = load ptr, ptr %2, align 8, !tbaa !24
  %8 = getelementptr inbounds nuw %struct.FT_LzwStateRec_, ptr %7, i32 0, i32 4
  store i32 0, ptr %8, align 4, !tbaa !39
  %9 = load ptr, ptr %2, align 8, !tbaa !24
  %10 = getelementptr inbounds nuw %struct.FT_LzwStateRec_, ptr %9, i32 0, i32 5
  store i8 0, ptr %10, align 8, !tbaa !40
  %11 = load ptr, ptr %2, align 8, !tbaa !24
  %12 = getelementptr inbounds nuw %struct.FT_LzwStateRec_, ptr %11, i32 0, i32 6
  store i64 0, ptr %12, align 8, !tbaa !41
  %13 = load ptr, ptr %2, align 8, !tbaa !24
  %14 = getelementptr inbounds nuw %struct.FT_LzwStateRec_, ptr %13, i32 0, i32 20
  store i32 0, ptr %14, align 8, !tbaa !42
  %15 = load ptr, ptr %2, align 8, !tbaa !24
  %16 = getelementptr inbounds nuw %struct.FT_LzwStateRec_, ptr %15, i32 0, i32 10
  store i32 9, ptr %16, align 4, !tbaa !43
  %17 = load ptr, ptr %2, align 8, !tbaa !24
  %18 = getelementptr inbounds nuw %struct.FT_LzwStateRec_, ptr %17, i32 0, i32 0
  store i32 0, ptr %18, align 8, !tbaa !44
  ret void
}

; Function Attrs: nounwind uwtable
define hidden void @ft_lzwstate_init(ptr noundef %0, ptr noundef %1) #0 {
  %3 = alloca ptr, align 8
  %4 = alloca ptr, align 8
  store ptr %0, ptr %3, align 8, !tbaa !24
  store ptr %1, ptr %4, align 8, !tbaa !3
  %5 = load ptr, ptr %3, align 8, !tbaa !24
  call void @llvm.memset.p0.i64(ptr align 8 %5, i8 0, i64 216, i1 false)
  %6 = load ptr, ptr %4, align 8, !tbaa !3
  %7 = load ptr, ptr %3, align 8, !tbaa !24
  %8 = getelementptr inbounds nuw %struct.FT_LzwStateRec_, ptr %7, i32 0, i32 23
  store ptr %6, ptr %8, align 8, !tbaa !45
  %9 = load ptr, ptr %4, align 8, !tbaa !3
  %10 = getelementptr inbounds nuw %struct.FT_StreamRec_, ptr %9, i32 0, i32 7
  %11 = load ptr, ptr %10, align 8, !tbaa !12
  %12 = load ptr, ptr %3, align 8, !tbaa !24
  %13 = getelementptr inbounds nuw %struct.FT_LzwStateRec_, ptr %12, i32 0, i32 24
  store ptr %11, ptr %13, align 8, !tbaa !46
  %14 = load ptr, ptr %3, align 8, !tbaa !24
  %15 = getelementptr inbounds nuw %struct.FT_LzwStateRec_, ptr %14, i32 0, i32 16
  store ptr null, ptr %15, align 8, !tbaa !47
  %16 = load ptr, ptr %3, align 8, !tbaa !24
  %17 = getelementptr inbounds nuw %struct.FT_LzwStateRec_, ptr %16, i32 0, i32 17
  store ptr null, ptr %17, align 8, !tbaa !48
  %18 = load ptr, ptr %3, align 8, !tbaa !24
  %19 = getelementptr inbounds nuw %struct.FT_LzwStateRec_, ptr %18, i32 0, i32 18
  store i32 0, ptr %19, align 8, !tbaa !49
  %20 = load ptr, ptr %3, align 8, !tbaa !24
  %21 = getelementptr inbounds nuw %struct.FT_LzwStateRec_, ptr %20, i32 0, i32 22
  %22 = getelementptr inbounds [64 x i8], ptr %21, i64 0, i64 0
  %23 = load ptr, ptr %3, align 8, !tbaa !24
  %24 = getelementptr inbounds nuw %struct.FT_LzwStateRec_, ptr %23, i32 0, i32 19
  store ptr %22, ptr %24, align 8, !tbaa !50
  %25 = load ptr, ptr %3, align 8, !tbaa !24
  %26 = getelementptr inbounds nuw %struct.FT_LzwStateRec_, ptr %25, i32 0, i32 21
  store i64 64, ptr %26, align 8, !tbaa !51
  %27 = load ptr, ptr %3, align 8, !tbaa !24
  call void @ft_lzwstate_reset(ptr noundef %27)
  ret void
}

; Function Attrs: nounwind uwtable
define internal i32 @ft_lzw_file_init(ptr noundef %0, ptr noundef %1, ptr noundef %2) #0 {
  %4 = alloca ptr, align 8
  %5 = alloca ptr, align 8
  %6 = alloca ptr, align 8
  %7 = alloca ptr, align 8
  %8 = alloca i32, align 4
  store ptr %0, ptr %4, align 8, !tbaa !8
  store ptr %1, ptr %5, align 8, !tbaa !3
  store ptr %2, ptr %6, align 8, !tbaa !3
  call void @llvm.lifetime.start.p0(i64 8, ptr %7) #5
  %9 = load ptr, ptr %4, align 8, !tbaa !8
  %10 = getelementptr inbounds nuw %struct.FT_LZWFileRec_, ptr %9, i32 0, i32 3
  store ptr %10, ptr %7, align 8, !tbaa !24
  call void @llvm.lifetime.start.p0(i64 4, ptr %8) #5
  %11 = load ptr, ptr %5, align 8, !tbaa !3
  %12 = load ptr, ptr %4, align 8, !tbaa !8
  %13 = getelementptr inbounds nuw %struct.FT_LZWFileRec_, ptr %12, i32 0, i32 1
  store ptr %11, ptr %13, align 8, !tbaa !26
  %14 = load ptr, ptr %6, align 8, !tbaa !3
  %15 = load ptr, ptr %4, align 8, !tbaa !8
  %16 = getelementptr inbounds nuw %struct.FT_LZWFileRec_, ptr %15, i32 0, i32 0
  store ptr %14, ptr %16, align 8, !tbaa !30
  %17 = load ptr, ptr %5, align 8, !tbaa !3
  %18 = getelementptr inbounds nuw %struct.FT_StreamRec_, ptr %17, i32 0, i32 7
  %19 = load ptr, ptr %18, align 8, !tbaa !12
  %20 = load ptr, ptr %4, align 8, !tbaa !8
  %21 = getelementptr inbounds nuw %struct.FT_LZWFileRec_, ptr %20, i32 0, i32 2
  store ptr %19, ptr %21, align 8, !tbaa !31
  %22 = load ptr, ptr %4, align 8, !tbaa !8
  %23 = getelementptr inbounds nuw %struct.FT_LZWFileRec_, ptr %22, i32 0, i32 4
  %24 = getelementptr inbounds [4096 x i8], ptr %23, i64 0, i64 0
  %25 = getelementptr inbounds i8, ptr %24, i64 4096
  %26 = load ptr, ptr %4, align 8, !tbaa !8
  %27 = getelementptr inbounds nuw %struct.FT_LZWFileRec_, ptr %26, i32 0, i32 7
  store ptr %25, ptr %27, align 8, !tbaa !32
  %28 = load ptr, ptr %4, align 8, !tbaa !8
  %29 = getelementptr inbounds nuw %struct.FT_LZWFileRec_, ptr %28, i32 0, i32 7
  %30 = load ptr, ptr %29, align 8, !tbaa !32
  %31 = load ptr, ptr %4, align 8, !tbaa !8
  %32 = getelementptr inbounds nuw %struct.FT_LZWFileRec_, ptr %31, i32 0, i32 6
  store ptr %30, ptr %32, align 8, !tbaa !33
  %33 = load ptr, ptr %4, align 8, !tbaa !8
  %34 = getelementptr inbounds nuw %struct.FT_LZWFileRec_, ptr %33, i32 0, i32 5
  store i64 0, ptr %34, align 8, !tbaa !34
  %35 = load ptr, ptr %6, align 8, !tbaa !3
  %36 = call i32 @ft_lzw_check_header(ptr noundef %35)
  store i32 %36, ptr %8, align 4, !tbaa !10
  %37 = load i32, ptr %8, align 4, !tbaa !10
  %38 = icmp ne i32 %37, 0
  br i1 %38, label %39, label %40

39:                                               ; preds = %3
  br label %43

40:                                               ; preds = %3
  %41 = load ptr, ptr %7, align 8, !tbaa !24
  %42 = load ptr, ptr %6, align 8, !tbaa !3
  call void @ft_lzwstate_init(ptr noundef %41, ptr noundef %42)
  br label %43

43:                                               ; preds = %40, %39
  %44 = load i32, ptr %8, align 4, !tbaa !10
  call void @llvm.lifetime.end.p0(i64 4, ptr %8) #5
  call void @llvm.lifetime.end.p0(i64 8, ptr %7) #5
  ret i32 %44
}

; Function Attrs: nounwind uwtable
define internal i32 @ft_lzw_check_header(ptr noundef %0) #0 {
  %2 = alloca ptr, align 8
  %3 = alloca i32, align 4
  %4 = alloca [2 x i8], align 1
  store ptr %0, ptr %2, align 8, !tbaa !3
  call void @llvm.lifetime.start.p0(i64 4, ptr %3) #5
  call void @llvm.lifetime.start.p0(i64 2, ptr %4) #5
  %5 = load ptr, ptr %2, align 8, !tbaa !3
  %6 = call i32 @FT_Stream_Seek(ptr noundef %5, i64 noundef 0)
  store i32 %6, ptr %3, align 4, !tbaa !10
  %7 = icmp ne i32 %6, 0
  br i1 %7, label %13, label %8

8:                                                ; preds = %1
  %9 = load ptr, ptr %2, align 8, !tbaa !3
  %10 = getelementptr inbounds [2 x i8], ptr %4, i64 0, i64 0
  %11 = call i32 @FT_Stream_Read(ptr noundef %9, ptr noundef %10, i64 noundef 2)
  store i32 %11, ptr %3, align 4, !tbaa !10
  %12 = icmp ne i32 %11, 0
  br i1 %12, label %13, label %14

13:                                               ; preds = %8, %1
  br label %26

14:                                               ; preds = %8
  %15 = getelementptr inbounds [2 x i8], ptr %4, i64 0, i64 0
  %16 = load i8, ptr %15, align 1, !tbaa !18
  %17 = zext i8 %16 to i32
  %18 = icmp ne i32 %17, 31
  br i1 %18, label %24, label %19

19:                                               ; preds = %14
  %20 = getelementptr inbounds [2 x i8], ptr %4, i64 0, i64 1
  %21 = load i8, ptr %20, align 1, !tbaa !18
  %22 = zext i8 %21 to i32
  %23 = icmp ne i32 %22, 157
  br i1 %23, label %24, label %25

24:                                               ; preds = %19, %14
  store i32 3, ptr %3, align 4, !tbaa !10
  br label %25

25:                                               ; preds = %24, %19
  br label %26

26:                                               ; preds = %25, %13
  %27 = load i32, ptr %3, align 4, !tbaa !10
  call void @llvm.lifetime.end.p0(i64 2, ptr %4) #5
  call void @llvm.lifetime.end.p0(i64 4, ptr %3) #5
  ret i32 %27
}

; Function Attrs: nounwind uwtable
define i32 @FT_Stream_OpenLZW(ptr noundef %0, ptr noundef %1) #0 {
  %3 = alloca ptr, align 8
  %4 = alloca ptr, align 8
  %5 = alloca i32, align 4
  %6 = alloca ptr, align 8
  %7 = alloca ptr, align 8
  store ptr %0, ptr %3, align 8, !tbaa !3
  store ptr %1, ptr %4, align 8, !tbaa !3
  call void @llvm.lifetime.start.p0(i64 4, ptr %5) #5
  call void @llvm.lifetime.start.p0(i64 8, ptr %6) #5
  call void @llvm.lifetime.start.p0(i64 8, ptr %7) #5
  store ptr null, ptr %7, align 8, !tbaa !8
  %8 = load ptr, ptr %3, align 8, !tbaa !3
  %9 = icmp ne ptr %8, null
  br i1 %9, label %10, label %13

10:                                               ; preds = %2
  %11 = load ptr, ptr %4, align 8, !tbaa !3
  %12 = icmp ne ptr %11, null
  br i1 %12, label %14, label %13

13:                                               ; preds = %10, %2
  store i32 40, ptr %5, align 4, !tbaa !10
  br label %60

14:                                               ; preds = %10
  %15 = load ptr, ptr %4, align 8, !tbaa !3
  %16 = getelementptr inbounds nuw %struct.FT_StreamRec_, ptr %15, i32 0, i32 7
  %17 = load ptr, ptr %16, align 8, !tbaa !12
  store ptr %17, ptr %6, align 8, !tbaa !17
  %18 = load ptr, ptr %4, align 8, !tbaa !3
  %19 = call i32 @ft_lzw_check_header(ptr noundef %18)
  store i32 %19, ptr %5, align 4, !tbaa !10
  %20 = load i32, ptr %5, align 4, !tbaa !10
  %21 = icmp ne i32 %20, 0
  br i1 %21, label %22, label %23

22:                                               ; preds = %14
  br label %60

23:                                               ; preds = %14
  %24 = load ptr, ptr %3, align 8, !tbaa !3
  call void @llvm.memset.p0.i64(ptr align 8 %24, i8 0, i64 80, i1 false)
  %25 = load ptr, ptr %6, align 8, !tbaa !17
  %26 = load ptr, ptr %3, align 8, !tbaa !3
  %27 = getelementptr inbounds nuw %struct.FT_StreamRec_, ptr %26, i32 0, i32 7
  store ptr %25, ptr %27, align 8, !tbaa !12
  %28 = load ptr, ptr %6, align 8, !tbaa !17
  %29 = call ptr @ft_mem_qalloc(ptr noundef %28, i64 noundef 4360, ptr noundef %5)
  store ptr %29, ptr %7, align 8, !tbaa !8
  %30 = load i32, ptr %5, align 4, !tbaa !10
  %31 = icmp ne i32 %30, 0
  br i1 %31, label %49, label %32

32:                                               ; preds = %23
  %33 = load ptr, ptr %7, align 8, !tbaa !8
  %34 = load ptr, ptr %3, align 8, !tbaa !3
  %35 = load ptr, ptr %4, align 8, !tbaa !3
  %36 = call i32 @ft_lzw_file_init(ptr noundef %33, ptr noundef %34, ptr noundef %35)
  store i32 %36, ptr %5, align 4, !tbaa !10
  %37 = load i32, ptr %5, align 4, !tbaa !10
  %38 = icmp ne i32 %37, 0
  br i1 %38, label %39, label %45

39:                                               ; preds = %32
  br label %40

40:                                               ; preds = %39
  %41 = load ptr, ptr %6, align 8, !tbaa !17
  %42 = load ptr, ptr %7, align 8, !tbaa !8
  call void @ft_mem_free(ptr noundef %41, ptr noundef %42)
  store ptr null, ptr %7, align 8, !tbaa !8
  br label %43

43:                                               ; preds = %40
  br label %44

44:                                               ; preds = %43
  br label %60

45:                                               ; preds = %32
  %46 = load ptr, ptr %7, align 8, !tbaa !8
  %47 = load ptr, ptr %3, align 8, !tbaa !3
  %48 = getelementptr inbounds nuw %struct.FT_StreamRec_, ptr %47, i32 0, i32 3
  store ptr %46, ptr %48, align 8, !tbaa !18
  br label %49

49:                                               ; preds = %45, %23
  %50 = load ptr, ptr %3, align 8, !tbaa !3
  %51 = getelementptr inbounds nuw %struct.FT_StreamRec_, ptr %50, i32 0, i32 1
  store i64 2147483647, ptr %51, align 8, !tbaa !19
  %52 = load ptr, ptr %3, align 8, !tbaa !3
  %53 = getelementptr inbounds nuw %struct.FT_StreamRec_, ptr %52, i32 0, i32 2
  store i64 0, ptr %53, align 8, !tbaa !20
  %54 = load ptr, ptr %3, align 8, !tbaa !3
  %55 = getelementptr inbounds nuw %struct.FT_StreamRec_, ptr %54, i32 0, i32 0
  store ptr null, ptr %55, align 8, !tbaa !21
  %56 = load ptr, ptr %3, align 8, !tbaa !3
  %57 = getelementptr inbounds nuw %struct.FT_StreamRec_, ptr %56, i32 0, i32 5
  store ptr @ft_lzw_stream_io, ptr %57, align 8, !tbaa !22
  %58 = load ptr, ptr %3, align 8, !tbaa !3
  %59 = getelementptr inbounds nuw %struct.FT_StreamRec_, ptr %58, i32 0, i32 6
  store ptr @ft_lzw_stream_close, ptr %59, align 8, !tbaa !23
  br label %60

60:                                               ; preds = %49, %44, %22, %13
  %61 = load i32, ptr %5, align 4, !tbaa !10
  call void @llvm.lifetime.end.p0(i64 8, ptr %7) #5
  call void @llvm.lifetime.end.p0(i64 8, ptr %6) #5
  call void @llvm.lifetime.end.p0(i64 4, ptr %5) #5
  ret i32 %61
}