; Function Attrs: nounwind uwtable
define i32 @FT_Stream_OpenLZW(ptr noundef %0, ptr noundef %1) local_unnamed_addr #0 {
  %3 = alloca [2 x i8], align 1
  %4 = alloca [2 x i8], align 1
  %5 = alloca i32, align 4
  call void @llvm.lifetime.start.p0(i64 4, ptr nonnull %5) #8
  %6 = icmp ne ptr %0, null
  %7 = icmp ne ptr %1, null
  %or.cond = and i1 %6, %7
  br i1 %or.cond, label %8, label %58

8:                                                ; preds = %2
  %9 = getelementptr inbounds nuw i8, ptr %1, i64 56
  %10 = load ptr, ptr %9, align 8, !tbaa !3
  call void @llvm.lifetime.start.p0(i64 2, ptr nonnull %4) #8
  %11 = tail call i32 @FT_Stream_Seek(ptr noundef nonnull %1, i64 noundef 0) #8
  %.not.i = icmp eq i32 %11, 0
  br i1 %.not.i, label %12, label %ft_lzw_check_header.exit.thread

12:                                               ; preds = %8
  %13 = call i32 @FT_Stream_Read(ptr noundef nonnull %1, ptr noundef nonnull %4, i64 noundef 2) #8
  %.not7.i = icmp eq i32 %13, 0
  br i1 %.not7.i, label %14, label %ft_lzw_check_header.exit.thread

14:                                               ; preds = %12
  %15 = load i8, ptr %4, align 1, !tbaa !11
  %16 = icmp ne i8 %15, 31
  %17 = getelementptr inbounds nuw i8, ptr %4, i64 1
  %18 = load i8, ptr %17, align 1
  %19 = icmp ne i8 %18, -99
  %or.cond.i = select i1 %16, i1 true, i1 %19
  br i1 %or.cond.i, label %ft_lzw_check_header.exit.thread, label %20

ft_lzw_check_header.exit.thread:                  ; preds = %8, %12, %14
  %.0.i.ph = phi i32 [ %13, %12 ], [ %11, %8 ], [ 3, %14 ]
  call void @llvm.lifetime.end.p0(i64 2, ptr nonnull %4) #8
  br label %58

20:                                               ; preds = %14
  call void @llvm.lifetime.end.p0(i64 2, ptr nonnull %4) #8
  store i32 0, ptr %5, align 4, !tbaa !12
  call void @llvm.memset.p0.i64(ptr noundef nonnull align 8 dereferenceable(80) %0, i8 0, i64 80, i1 false)
  %21 = getelementptr inbounds nuw i8, ptr %0, i64 56
  store ptr %10, ptr %21, align 8, !tbaa !3
  %22 = call ptr @ft_mem_qalloc(ptr noundef %10, i64 noundef 4360, ptr noundef nonnull %5) #8
  %23 = load i32, ptr %5, align 4, !tbaa !12
  %.not22 = icmp eq i32 %23, 0
  br i1 %.not22, label %24, label %53

24:                                               ; preds = %20
  %25 = getelementptr inbounds nuw i8, ptr %22, i64 8
  store ptr %0, ptr %25, align 8, !tbaa !14
  store ptr %1, ptr %22, align 8, !tbaa !19
  %26 = load ptr, ptr %21, align 8, !tbaa !3
  %27 = getelementptr inbounds nuw i8, ptr %22, i64 16
  store ptr %26, ptr %27, align 8, !tbaa !20
  %28 = getelementptr inbounds nuw i8, ptr %22, i64 4336
  %29 = getelementptr inbounds nuw i8, ptr %22, i64 4352
  store ptr %28, ptr %29, align 8, !tbaa !21
  %30 = getelementptr inbounds nuw i8, ptr %22, i64 4344
  store ptr %28, ptr %30, align 8, !tbaa !22
  store i64 0, ptr %28, align 8, !tbaa !23
  call void @llvm.lifetime.start.p0(i64 2, ptr nonnull %3) #8
  %31 = call i32 @FT_Stream_Seek(ptr noundef nonnull %1, i64 noundef 0) #8
  %.not.i.i = icmp eq i32 %31, 0
  br i1 %.not.i.i, label %32, label %40

32:                                               ; preds = %24
  %33 = call i32 @FT_Stream_Read(ptr noundef nonnull %1, ptr noundef nonnull %3, i64 noundef 2) #8
  %.not7.i.i = icmp eq i32 %33, 0
  br i1 %.not7.i.i, label %34, label %40

34:                                               ; preds = %32
  %35 = load i8, ptr %3, align 1, !tbaa !11
  %36 = icmp ne i8 %35, 31
  %37 = getelementptr inbounds nuw i8, ptr %3, i64 1
  %38 = load i8, ptr %37, align 1
  %39 = icmp ne i8 %38, -99
  %or.cond.i.i = select i1 %36, i1 true, i1 %39
  br i1 %or.cond.i.i, label %40, label %41

40:                                               ; preds = %34, %32, %24
  %.0.i.ph.i = phi i32 [ %33, %32 ], [ %31, %24 ], [ 3, %34 ]
  call void @llvm.lifetime.end.p0(i64 2, ptr nonnull %3) #8
  store i32 %.0.i.ph.i, ptr %5, align 4, !tbaa !12
  call void @ft_mem_free(ptr noundef %10, ptr noundef nonnull %22) #8
  %.pre = load i32, ptr %5, align 4, !tbaa !12
  br label %58

41:                                               ; preds = %34
  call void @llvm.lifetime.end.p0(i64 2, ptr nonnull %3) #8
  %42 = getelementptr inbounds nuw i8, ptr %22, i64 24
  call void @llvm.memset.p0.i64(ptr noundef nonnull align 8 dereferenceable(216) %42, i8 0, i64 216, i1 false)
  %43 = getelementptr inbounds nuw i8, ptr %22, i64 224
  store ptr %1, ptr %43, align 8, !tbaa !24
  %44 = load ptr, ptr %9, align 8, !tbaa !3
  %45 = getelementptr inbounds nuw i8, ptr %22, i64 232
  store ptr %44, ptr %45, align 8, !tbaa !25
  %46 = getelementptr inbounds nuw i8, ptr %22, i64 112
  %47 = getelementptr inbounds nuw i8, ptr %22, i64 160
  %48 = getelementptr inbounds nuw i8, ptr %22, i64 136
  call void @llvm.memset.p0.i64(ptr noundef nonnull align 8 dereferenceable(20) %46, i8 0, i64 20, i1 false)
  store ptr %47, ptr %48, align 8, !tbaa !26
  %49 = getelementptr inbounds nuw i8, ptr %22, i64 152
  store i64 64, ptr %49, align 8, !tbaa !27
  %50 = getelementptr inbounds nuw i8, ptr %22, i64 48
  %51 = getelementptr inbounds nuw i8, ptr %22, i64 84
  call void @llvm.memset.p0.i64(ptr noundef nonnull align 8 dereferenceable(9) %50, i8 0, i64 9, i1 false)
  store i32 9, ptr %51, align 4, !tbaa !28
  %52 = getelementptr inbounds nuw i8, ptr %0, i64 24
  store ptr %22, ptr %52, align 8, !tbaa !11
  br label %53

53:                                               ; preds = %41, %20
  %54 = getelementptr inbounds nuw i8, ptr %0, i64 8
  store i64 2147483647, ptr %54, align 8, !tbaa !29
  %55 = getelementptr inbounds nuw i8, ptr %0, i64 16
  store i64 0, ptr %55, align 8, !tbaa !30
  store ptr null, ptr %0, align 8, !tbaa !31
  %56 = getelementptr inbounds nuw i8, ptr %0, i64 40
  store ptr @ft_lzw_stream_io, ptr %56, align 8, !tbaa !32
  %57 = getelementptr inbounds nuw i8, ptr %0, i64 48
  store ptr @ft_lzw_stream_close, ptr %57, align 8, !tbaa !33
  br label %58

58:                                               ; preds = %2, %ft_lzw_check_header.exit.thread, %53, %40
  %59 = phi i32 [ %.0.i.ph, %ft_lzw_check_header.exit.thread ], [ %23, %53 ], [ %.pre, %40 ], [ 40, %2 ]
  call void @llvm.lifetime.end.p0(i64 4, ptr nonnull %5) #8
  ret i32 %59
}